(dp1
S'sort_id'
p2
I3
sS'sort_order'
p3
I1
sS'columns'
p4
(dp5
S'Client'
p6
(dp7
S'position'
p8
I3
sS'width'
p9
I105
ssS'Address'
p10
(dp11
g8
I1
sg9
I549
ssN(dp12
g8
I0
sg9
I20
ssS'Progress'
p13
(dp14
g8
I2
sg9
I142
ssS'Up Speed'
p15
(dp16
g8
I5
sg9
I221
ssS'Down Speed'
p17
(dp18
g8
I4
sg9
I86
sss.